; Function Attrs: nofree norecurse nosync nounwind memory(read, inaccessiblemem: none) uwtable
define range(i32 0, 2) i32 @Fra_SmlNodeIsConst(ptr noundef readonly captures(none) %0) local_unnamed_addr #0 {
  %2 = getelementptr inbounds nuw i8, ptr %0, i64 40
  %3 = load ptr, ptr %2, align 8, !tbaa !3
  %4 = getelementptr inbounds nuw i8, ptr %3, i64 56
  %5 = load ptr, ptr %4, align 8, !tbaa !6
  %6 = getelementptr inbounds nuw i8, ptr %0, i64 36
  %7 = load i32, ptr %6, align 4, !tbaa !22
  %8 = getelementptr inbounds nuw i8, ptr %5, i64 40
  %9 = getelementptr inbounds nuw i8, ptr %5, i64 20
  %10 = load i32, ptr %9, align 4, !tbaa !25
  %11 = mul nsw i32 %10, %7
  %12 = sext i32 %11 to i64
  %13 = getelementptr inbounds i32, ptr %8, i64 %12
  %14 = getelementptr inbounds nuw i8, ptr %5, i64 24
  %15 = load i32, ptr %14, align 8, !tbaa !27
  %16 = icmp slt i32 %15, %10
  br i1 %16, label %.lr.ph.preheader, label %._crit_edge

.lr.ph.preheader:                                 ; preds = %1
  %17 = sext i32 %15 to i64
  br label %.lr.ph

18:                                               ; preds = %.lr.ph
  %indvars.iv.next = add nsw i64 %indvars.iv, 1
  %lftr.wideiv = trunc i64 %indvars.iv.next to i32
  %exitcond.not = icmp eq i32 %10, %lftr.wideiv
  br i1 %exitcond.not, label %._crit_edge, label %.lr.ph, !llvm.loop !31

.lr.ph:                                           ; preds = %.lr.ph.preheader, %18
  %indvars.iv = phi i64 [ %17, %.lr.ph.preheader ], [ %indvars.iv.next, %18 ]
  %19 = getelementptr inbounds i32, ptr %13, i64 %indvars.iv
  %20 = load i32, ptr %19, align 4, !tbaa !28
  %.not = icmp eq i32 %20, 0
  br i1 %.not, label %18, label %._crit_edge

._crit_edge:                                      ; preds = %.lr.ph, %18, %1
  %.09 = phi i32 [ 1, %1 ], [ 1, %18 ], [ 0, %.lr.ph ]
  ret i32 %.09
}